; Function Attrs: nounwind uwtable
define dso_local i32 @multi_sort_compare_dim(i32 noundef %0, ptr noundef readonly captures(none) %1, ptr noundef readonly captures(none) %2, ptr noundef %3) local_unnamed_addr #0 {
  %5 = load ptr, ptr %1, align 8
  %6 = sext i32 %0 to i64
  %7 = getelementptr inbounds i64, ptr %5, i64 %6
  %8 = load i64, ptr %7, align 8
  %9 = getelementptr inbounds nuw i8, ptr %1, i64 8
  %10 = load ptr, ptr %9, align 8
  %11 = getelementptr inbounds i8, ptr %10, i64 %6
  %12 = load i8, ptr %11, align 1, !range !8, !noundef !9
  %13 = trunc nuw i8 %12 to i1
  %14 = load ptr, ptr %2, align 8
  %15 = getelementptr inbounds i64, ptr %14, i64 %6
  %16 = load i64, ptr %15, align 8
  %17 = getelementptr inbounds nuw i8, ptr %2, i64 8
  %18 = load ptr, ptr %17, align 8
  %19 = getelementptr inbounds i8, ptr %18, i64 %6
  %20 = load i8, ptr %19, align 1, !range !8, !noundef !9
  %21 = trunc nuw i8 %20 to i1
  %22 = getelementptr inbounds nuw i8, ptr %3, i64 8
  %23 = getelementptr inbounds [0 x %struct.SortSupportData], ptr %22, i64 0, i64 %6
  br i1 %13, label %24, label %29

24:                                               ; preds = %4
  br i1 %21, label %ApplySortComparator.exit, label %25

25:                                               ; preds = %24
  %26 = getelementptr inbounds nuw i8, ptr %23, i64 13
  %27 = load i8, ptr %26, align 1, !range !8, !noundef !9
  %28 = trunc nuw i8 %27 to i1
  %..i = select i1 %28, i32 -1, i32 1
  br label %ApplySortComparator.exit

29:                                               ; preds = %4
  br i1 %21, label %30, label %34

30:                                               ; preds = %29
  %31 = getelementptr inbounds nuw i8, ptr %23, i64 13
  %32 = load i8, ptr %31, align 1, !range !8, !noundef !9
  %33 = trunc nuw i8 %32 to i1
  %.12.i = select i1 %33, i32 1, i32 -1
  br label %ApplySortComparator.exit

34:                                               ; preds = %29
  %35 = getelementptr inbounds nuw i8, ptr %23, i64 24
  %36 = load ptr, ptr %35, align 8
  %37 = tail call i32 %36(i64 noundef %8, i64 noundef %16, ptr noundef nonnull %23) #10
  %38 = getelementptr inbounds nuw i8, ptr %23, i64 12
  %39 = load i8, ptr %38, align 4, !range !8, !noundef !9
  %40 = trunc nuw i8 %39 to i1
  br i1 %40, label %41, label %ApplySortComparator.exit

41:                                               ; preds = %34
  %42 = icmp slt i32 %37, 0
  %43 = sub i32 0, %37
  %44 = select i1 %42, i32 1, i32 %43
  br label %ApplySortComparator.exit

ApplySortComparator.exit:                         ; preds = %24, %25, %30, %34, %41
  %.0.i = phi i32 [ %44, %41 ], [ %37, %34 ], [ 0, %24 ], [ %..i, %25 ], [ %.12.i, %30 ]
  ret i32 %.0.i
}